ARM GAS  C:\Users\keega\AppData\Local\Temp\ccXHeOSj.s 			page 1


   1              		.syntax unified
   2              		.cpu cortex-m0
   3              		.fpu softvfp
   4              		.eabi_attribute 20, 1
   5              		.eabi_attribute 21, 1
   6              		.eabi_attribute 23, 3
   7              		.eabi_attribute 24, 1
   8              		.eabi_attribute 25, 1
   9              		.eabi_attribute 26, 1
  10              		.eabi_attribute 30, 1
  11              		.eabi_attribute 34, 0
  12              		.eabi_attribute 18, 4
  13              		.thumb
  14              		.syntax unified
  15              		.file	"user_core.c"
  16              		.text
  17              	.Ltext0:
  18              		.cfi_sections	.debug_frame
  19              		.section	.text.UserCore_Run,"ax",%progbits
  20              		.align	2
  21              		.global	UserCore_Run
  22              		.code	16
  23              		.thumb_func
  24              		.type	UserCore_Run, %function
  25              	UserCore_Run:
  26              	.LFB68:
  27              		.file 1 "user_core.c"
   1:user_core.c   **** /* ========================================
   2:user_core.c   ****  *
   3:user_core.c   ****  * Copyright YOUR COMPANY, THE YEAR
   4:user_core.c   ****  * All Rights Reserved
   5:user_core.c   ****  * UNPUBLISHED, LICENSED SOFTWARE.
   6:user_core.c   ****  *
   7:user_core.c   ****  * CONFIDENTIAL AND PROPRIETARY INFORMATION
   8:user_core.c   ****  * WHICH IS THE PROPERTY OF your company.
   9:user_core.c   ****  *
  10:user_core.c   ****  * ========================================
  11:user_core.c   **** */
  12:user_core.c   **** 
  13:user_core.c   **** #include "user_core.h"
  14:user_core.c   **** 
  15:user_core.c   **** void UserCore_Initalize(void)
  16:user_core.c   **** {
  17:user_core.c   ****     UART_Open();
  18:user_core.c   ****     ADC_Open();
  19:user_core.c   **** }
  20:user_core.c   **** 
  21:user_core.c   **** void UserCore_Run(void)
  22:user_core.c   **** {
  28              		.loc 1 22 0
  29              		.cfi_startproc
  30              		@ args = 0, pretend = 0, frame = 0
  31              		@ frame_needed = 0, uses_anonymous_args = 0
  32              		@ link register save eliminated.
  23:user_core.c   ****     #if 0
  24:user_core.c   ****     sadc_values sadc_raw;
  25:user_core.c   ****     
ARM GAS  C:\Users\keega\AppData\Local\Temp\ccXHeOSj.s 			page 2


  26:user_core.c   ****     DMA_Start((void *)ADC_SAR_CHAN0_RESULT_PTR, (void *)&sadc_raw.v12);
  27:user_core.c   ****     DMA_Start((void *)ADC_SAR_CHAN1_RESULT_PTR, (void *)&sadc_raw.v5);
  28:user_core.c   ****     DMA_Start((void *)ADC_SAR_CHAN2_RESULT_PTR, (void *)&sadc_raw.external_temperature);
  29:user_core.c   ****     DMA_Start((void *)ADC_SAR_CHAN3_RESULT_PTR, (void *)&sadc_raw.mcu_temperature);
  30:user_core.c   ****     
  31:user_core.c   ****     ADC_StartConvert();
  32:user_core.c   ****     
  33:user_core.c   ****     if(0u != CyDmaGetInterruptSourceMasked())
  34:user_core.c   ****     {
  35:user_core.c   ****         /* Once asserted, interrupt remains high (active) until cleared. */
  36:user_core.c   ****         CyDmaClearInterruptSource(DMA_CHANNEL_MASK);
  37:user_core.c   ****         
  38:user_core.c   ****         sprintf(sdata, "12V: %d\t 5V: %d\t Ext_Temp: %d\t MCU_Temp: %d\r\n", sadc_raw.v12, sadc_raw
  39:user_core.c   ****             sadc_raw.external_temperature, sadc_raw.mcu_temperature);
  40:user_core.c   ****     }
  41:user_core.c   ****     #endif
  42:user_core.c   **** }
  33              		.loc 1 42 0
  34              		@ sp needed
  35 0000 7047     		bx	lr
  36              		.cfi_endproc
  37              	.LFE68:
  38              		.size	UserCore_Run, .-UserCore_Run
  39 0002 C046     		.section	.text.ADC_Open,"ax",%progbits
  40              		.align	2
  41              		.global	ADC_Open
  42              		.code	16
  43              		.thumb_func
  44              		.type	ADC_Open, %function
  45              	ADC_Open:
  46              	.LFB69:
  43:user_core.c   **** 
  44:user_core.c   **** // ADC Functionality
  45:user_core.c   **** void ADC_Open(void)
  46:user_core.c   **** {
  47              		.loc 1 46 0
  48              		.cfi_startproc
  49              		@ args = 0, pretend = 0, frame = 0
  50              		@ frame_needed = 0, uses_anonymous_args = 0
  51 0000 10B5     		push	{r4, lr}
  52              		.cfi_def_cfa_offset 8
  53              		.cfi_offset 4, -8
  54              		.cfi_offset 14, -4
  47:user_core.c   ****     ADC_Start();
  55              		.loc 1 47 0
  56 0002 FFF7FEFF 		bl	ADC_Start
  57              	.LVL0:
  48:user_core.c   **** }
  58              		.loc 1 48 0
  59              		@ sp needed
  60 0006 10BD     		pop	{r4, pc}
  61              		.cfi_endproc
  62              	.LFE69:
  63              		.size	ADC_Open, .-ADC_Open
  64              		.section	.text.ADC_Read,"ax",%progbits
  65              		.align	2
  66              		.global	ADC_Read
ARM GAS  C:\Users\keega\AppData\Local\Temp\ccXHeOSj.s 			page 3


  67              		.code	16
  68              		.thumb_func
  69              		.type	ADC_Read, %function
  70              	ADC_Read:
  71              	.LFB70:
  49:user_core.c   **** 
  50:user_core.c   **** void ADC_Read(void)
  51:user_core.c   **** {
  72              		.loc 1 51 0
  73              		.cfi_startproc
  74              		@ args = 0, pretend = 0, frame = 0
  75              		@ frame_needed = 0, uses_anonymous_args = 0
  76              		@ link register save eliminated.
  52:user_core.c   ****     
  53:user_core.c   ****     //DMA_Start((void *)ADC_SAR_CHAN0_RESULT_PTR, (void *)&adc_sample);
  54:user_core.c   ****     //ADC_StartConvert();
  55:user_core.c   **** }
  77              		.loc 1 55 0
  78              		@ sp needed
  79 0000 7047     		bx	lr
  80              		.cfi_endproc
  81              	.LFE70:
  82              		.size	ADC_Read, .-ADC_Read
  83 0002 C046     		.section	.text.UART_Open,"ax",%progbits
  84              		.align	2
  85              		.global	UART_Open
  86              		.code	16
  87              		.thumb_func
  88              		.type	UART_Open, %function
  89              	UART_Open:
  90              	.LFB71:
  56:user_core.c   **** 
  57:user_core.c   **** 
  58:user_core.c   **** // UART Functionality
  59:user_core.c   **** void UART_Open(void)
  60:user_core.c   **** {
  91              		.loc 1 60 0
  92              		.cfi_startproc
  93              		@ args = 0, pretend = 0, frame = 0
  94              		@ frame_needed = 0, uses_anonymous_args = 0
  95 0000 10B5     		push	{r4, lr}
  96              		.cfi_def_cfa_offset 8
  97              		.cfi_offset 4, -8
  98              		.cfi_offset 14, -4
  61:user_core.c   ****     UART_Start();
  99              		.loc 1 61 0
 100 0002 FFF7FEFF 		bl	UART_Start
 101              	.LVL1:
  62:user_core.c   **** }
 102              		.loc 1 62 0
 103              		@ sp needed
 104 0006 10BD     		pop	{r4, pc}
 105              		.cfi_endproc
 106              	.LFE71:
 107              		.size	UART_Open, .-UART_Open
 108              		.section	.text.UserCore_Initalize,"ax",%progbits
 109              		.align	2
ARM GAS  C:\Users\keega\AppData\Local\Temp\ccXHeOSj.s 			page 4


 110              		.global	UserCore_Initalize
 111              		.code	16
 112              		.thumb_func
 113              		.type	UserCore_Initalize, %function
 114              	UserCore_Initalize:
 115              	.LFB67:
  16:user_core.c   ****     UART_Open();
 116              		.loc 1 16 0
 117              		.cfi_startproc
 118              		@ args = 0, pretend = 0, frame = 0
 119              		@ frame_needed = 0, uses_anonymous_args = 0
 120 0000 10B5     		push	{r4, lr}
 121              		.cfi_def_cfa_offset 8
 122              		.cfi_offset 4, -8
 123              		.cfi_offset 14, -4
  17:user_core.c   ****     ADC_Open();
 124              		.loc 1 17 0
 125 0002 FFF7FEFF 		bl	UART_Open
 126              	.LVL2:
  18:user_core.c   **** }
 127              		.loc 1 18 0
 128 0006 FFF7FEFF 		bl	ADC_Open
 129              	.LVL3:
  19:user_core.c   **** 
 130              		.loc 1 19 0
 131              		@ sp needed
 132 000a 10BD     		pop	{r4, pc}
 133              		.cfi_endproc
 134              	.LFE67:
 135              		.size	UserCore_Initalize, .-UserCore_Initalize
 136              		.section	.text.UART_Close,"ax",%progbits
 137              		.align	2
 138              		.global	UART_Close
 139              		.code	16
 140              		.thumb_func
 141              		.type	UART_Close, %function
 142              	UART_Close:
 143              	.LFB72:
  63:user_core.c   **** 
  64:user_core.c   **** void UART_Close(void)
  65:user_core.c   **** {
 144              		.loc 1 65 0
 145              		.cfi_startproc
 146              		@ args = 0, pretend = 0, frame = 0
 147              		@ frame_needed = 0, uses_anonymous_args = 0
 148 0000 10B5     		push	{r4, lr}
 149              		.cfi_def_cfa_offset 8
 150              		.cfi_offset 4, -8
 151              		.cfi_offset 14, -4
  66:user_core.c   ****     UART_Stop();
 152              		.loc 1 66 0
 153 0002 FFF7FEFF 		bl	UART_Stop
 154              	.LVL4:
  67:user_core.c   **** }
 155              		.loc 1 67 0
 156              		@ sp needed
 157 0006 10BD     		pop	{r4, pc}
ARM GAS  C:\Users\keega\AppData\Local\Temp\ccXHeOSj.s 			page 5


 158              		.cfi_endproc
 159              	.LFE72:
 160              		.size	UART_Close, .-UART_Close
 161              		.section	.text.UART_Read,"ax",%progbits
 162              		.align	2
 163              		.global	UART_Read
 164              		.code	16
 165              		.thumb_func
 166              		.type	UART_Read, %function
 167              	UART_Read:
 168              	.LFB73:
  68:user_core.c   **** 
  69:user_core.c   **** void UART_Read(void)
  70:user_core.c   **** {
 169              		.loc 1 70 0
 170              		.cfi_startproc
 171              		@ args = 0, pretend = 0, frame = 0
 172              		@ frame_needed = 0, uses_anonymous_args = 0
 173              		@ link register save eliminated.
  71:user_core.c   ****     // TODO Add read functionality
  72:user_core.c   **** }
 174              		.loc 1 72 0
 175              		@ sp needed
 176 0000 7047     		bx	lr
 177              		.cfi_endproc
 178              	.LFE73:
 179              		.size	UART_Read, .-UART_Read
 180 0002 C046     		.section	.text.UART_Write,"ax",%progbits
 181              		.align	2
 182              		.global	UART_Write
 183              		.code	16
 184              		.thumb_func
 185              		.type	UART_Write, %function
 186              	UART_Write:
 187              	.LFB74:
  73:user_core.c   **** 
  74:user_core.c   **** void UART_Write(char *data, int clear)
  75:user_core.c   **** { 
 188              		.loc 1 75 0
 189              		.cfi_startproc
 190              		@ args = 0, pretend = 0, frame = 0
 191              		@ frame_needed = 0, uses_anonymous_args = 0
 192              	.LVL5:
 193 0000 10B5     		push	{r4, lr}
 194              		.cfi_def_cfa_offset 8
 195              		.cfi_offset 4, -8
 196              		.cfi_offset 14, -4
 197 0002 0400     		movs	r4, r0
  76:user_core.c   ****     if(clear == TRUE){
 198              		.loc 1 76 0
 199 0004 0129     		cmp	r1, #1
 200 0006 05D1     		bne	.L9
  77:user_core.c   ****         UART_UartPutString(CLEAR_TERMINAL);
 201              		.loc 1 77 0
 202 0008 0448     		ldr	r0, .L10
 203              	.LVL6:
 204 000a FFF7FEFF 		bl	UART_UartPutString
ARM GAS  C:\Users\keega\AppData\Local\Temp\ccXHeOSj.s 			page 6


 205              	.LVL7:
  78:user_core.c   ****         UART_UartPutString(CURSOR_HOME_TERMINAL);
 206              		.loc 1 78 0
 207 000e 0448     		ldr	r0, .L10+4
 208 0010 FFF7FEFF 		bl	UART_UartPutString
 209              	.LVL8:
 210              	.L9:
  79:user_core.c   ****     }
  80:user_core.c   ****     
  81:user_core.c   ****     UART_UartPutString(data);
 211              		.loc 1 81 0
 212 0014 2000     		movs	r0, r4
 213 0016 FFF7FEFF 		bl	UART_UartPutString
 214              	.LVL9:
  82:user_core.c   **** }
 215              		.loc 1 82 0
 216              		@ sp needed
 217              	.LVL10:
 218 001a 10BD     		pop	{r4, pc}
 219              	.L11:
 220              		.align	2
 221              	.L10:
 222 001c 00000000 		.word	.LC0
 223 0020 08000000 		.word	.LC2
 224              		.cfi_endproc
 225              	.LFE74:
 226              		.size	UART_Write, .-UART_Write
 227              		.comm	sdata,255,4
 228              		.section	.rodata.str1.4,"aMS",%progbits,1
 229              		.align	2
 230              	.LC0:
 231 0000 1B5B324A 		.ascii	"\033[2J\000"
 231      00
 232 0005 000000   		.space	3
 233              	.LC2:
 234 0008 1B5B4800 		.ascii	"\033[H\000"
 235              		.text
 236              	.Letext0:
 237              		.file 2 "Generated_Source\\PSoC4/ADC.h"
 238              		.file 3 "Generated_Source\\PSoC4/UART.h"
 239              		.file 4 "Generated_Source\\PSoC4/UART_SPI_UART.h"
 240              		.file 5 "user_core.h"